target datalayout = "e-m:e-p270:32:32-p271:32:32-p272:64:64-i64:64-i128:128-f80:128-n8:16:32:64-S128"
target triple = "x86_64-pc-linux-gnu"

%class.Jipopt = type { %"class.Ipopt::TNLP.base", ptr, ptr, i32, i32, i32, i32, i32, ptr, ptr, ptr, ptr, ptr, ptr, ptr, ptr, ptr, i8, i8, %"class.Ipopt::SmartPtr", ptr, ptr, ptr, ptr, ptr, ptr, ptr, ptr, ptr, ptr, ptr }
%"class.Ipopt::TNLP.base" = type { %"class.Ipopt::ReferencedObject.base" }
%"class.Ipopt::ReferencedObject.base" = type <{ ptr, i32 }>
%"class.Ipopt::SmartPtr" = type { ptr }
%struct.JNIEnv_ = type { ptr }
%struct.JNINativeInterface_ = type { ptr, ptr, ptr, ptr, ptr, ptr, ptr, ptr, ptr, ptr, ptr, ptr, ptr, ptr, ptr, ptr, ptr, ptr, ptr, ptr, ptr, ptr, ptr, ptr, ptr, ptr, ptr, ptr, ptr, ptr, ptr, ptr, ptr, ptr, ptr, ptr, ptr, ptr, ptr, ptr, ptr, ptr, ptr, ptr, ptr, ptr, ptr, ptr, ptr, ptr, ptr, ptr, ptr, ptr, ptr, ptr, ptr, ptr, ptr, ptr, ptr, ptr, ptr, ptr, ptr, ptr, ptr, ptr, ptr, ptr, ptr, ptr, ptr, ptr, ptr, ptr, ptr, ptr, ptr, ptr, ptr, ptr, ptr, ptr, ptr, ptr, ptr, ptr, ptr, ptr, ptr, ptr, ptr, ptr, ptr, ptr, ptr, ptr, ptr, ptr, ptr, ptr, ptr, ptr, ptr, ptr, ptr, ptr, ptr, ptr, ptr, ptr, ptr, ptr, ptr, ptr, ptr, ptr, ptr, ptr, ptr, ptr, ptr, ptr, ptr, ptr, ptr, ptr, ptr, ptr, ptr, ptr, ptr, ptr, ptr, ptr, ptr, ptr, ptr, ptr, ptr, ptr, ptr, ptr, ptr, ptr, ptr, ptr, ptr, ptr, ptr, ptr, ptr, ptr, ptr, ptr, ptr, ptr, ptr, ptr, ptr, ptr, ptr, ptr, ptr, ptr, ptr, ptr, ptr, ptr, ptr, ptr, ptr, ptr, ptr, ptr, ptr, ptr, ptr, ptr, ptr, ptr, ptr, ptr, ptr, ptr, ptr, ptr, ptr, ptr, ptr, ptr, ptr, ptr, ptr, ptr, ptr, ptr, ptr, ptr, ptr, ptr, ptr, ptr, ptr, ptr, ptr, ptr, ptr, ptr, ptr, ptr, ptr, ptr, ptr, ptr, ptr, ptr, ptr, ptr, ptr, ptr, ptr, ptr, ptr, ptr, ptr, ptr, ptr, ptr, ptr, ptr, ptr, ptr }

; Function Attrs: mustprogress uwtable
define linkonce_odr void @_ZN7JNIEnv_17GetIntArrayRegionEP10_jintArrayiiPi(ptr noundef nonnull align 8 dereferenceable(8) %0, ptr noundef %1, i32 noundef %2, i32 noundef %3, ptr noundef %4) #4 comdat align 2 {
  %6 = alloca ptr, align 8
  %7 = alloca ptr, align 8
  %8 = alloca i32, align 4
  %9 = alloca i32, align 4
  %10 = alloca ptr, align 8
  store ptr %0, ptr %6, align 8, !tbaa !8
  store ptr %1, ptr %7, align 8, !tbaa !108
  store i32 %2, ptr %8, align 4, !tbaa !12
  store i32 %3, ptr %9, align 4, !tbaa !12
  store ptr %4, ptr %10, align 8, !tbaa !95
  %11 = load ptr, ptr %6, align 8
  %12 = getelementptr inbounds nuw %struct.JNIEnv_, ptr %11, i32 0, i32 0
  %13 = load ptr, ptr %12, align 8, !tbaa !84
  %14 = getelementptr inbounds nuw %struct.JNINativeInterface_, ptr %13, i32 0, i32 203
  %15 = load ptr, ptr %14, align 8, !tbaa !111
  %16 = load ptr, ptr %7, align 8, !tbaa !108
  %17 = load i32, ptr %8, align 4, !tbaa !12
  %18 = load i32, ptr %9, align 4, !tbaa !12
  %19 = load ptr, ptr %10, align 8, !tbaa !95
  call void %15(ptr noundef %11, ptr noundef %16, i32 noundef %17, i32 noundef %18, ptr noundef %19)
  ret void
}

; Function Attrs: mustprogress uwtable
define linkonce_odr noundef ptr @_ZN7JNIEnv_11NewIntArrayEi(ptr noundef nonnull align 8 dereferenceable(8) %0, i32 noundef %1) #4 comdat align 2 {
  %3 = alloca ptr, align 8
  %4 = alloca i32, align 4
  store ptr %0, ptr %3, align 8, !tbaa !8
  store i32 %1, ptr %4, align 4, !tbaa !12
  %5 = load ptr, ptr %3, align 8
  %6 = getelementptr inbounds nuw %struct.JNIEnv_, ptr %5, i32 0, i32 0
  %7 = load ptr, ptr %6, align 8, !tbaa !84
  %8 = getelementptr inbounds nuw %struct.JNINativeInterface_, ptr %7, i32 0, i32 179
  %9 = load ptr, ptr %8, align 8, !tbaa !110
  %10 = load i32, ptr %4, align 4, !tbaa !12
  %11 = call noundef ptr %9(ptr noundef %5, i32 noundef %10)
  ret ptr %11
}

; Function Attrs: mustprogress uwtable
define noundef zeroext i1 @_ZN6Jipopt31get_list_of_nonlinear_variablesEiPi(ptr noundef nonnull align 8 dereferenceable(232) %0, i32 noundef %1, ptr noundef %2) unnamed_addr #4 align 2 {
  %4 = alloca i1, align 1
  %5 = alloca ptr, align 8
  %6 = alloca i32, align 4
  %7 = alloca ptr, align 8
  %8 = alloca ptr, align 8
  %9 = alloca i32, align 4
  store ptr %0, ptr %5, align 8, !tbaa !3
  store i32 %1, ptr %6, align 4, !tbaa !12
  store ptr %2, ptr %7, align 8, !tbaa !95
  %10 = load ptr, ptr %5, align 8
  %11 = getelementptr inbounds nuw %class.Jipopt, ptr %10, i32 0, i32 18
  %12 = load i8, ptr %11, align 1, !tbaa !40
  %13 = icmp ne i8 %12, 0
  br i1 %13, label %15, label %14

14:                                               ; preds = %3
  store i1 false, ptr %4, align 1
  br label %42

15:                                               ; preds = %3
  call void @llvm.lifetime.start.p0(i64 8, ptr %8) #3
  %16 = getelementptr inbounds nuw %class.Jipopt, ptr %10, i32 0, i32 1
  %17 = load ptr, ptr %16, align 8, !tbaa !16
  %18 = load i32, ptr %6, align 4, !tbaa !12
  %19 = call noundef ptr @_ZN7JNIEnv_11NewIntArrayEi(ptr noundef nonnull align 8 dereferenceable(8) %17, i32 noundef %18)
  store ptr %19, ptr %8, align 8, !tbaa !108
  %20 = getelementptr inbounds nuw %class.Jipopt, ptr %10, i32 0, i32 1
  %21 = load ptr, ptr %20, align 8, !tbaa !16
  %22 = getelementptr inbounds nuw %class.Jipopt, ptr %10, i32 0, i32 2
  %23 = load ptr, ptr %22, align 8, !tbaa !24
  %24 = getelementptr inbounds nuw %class.Jipopt, ptr %10, i32 0, i32 30
  %25 = load ptr, ptr %24, align 8, !tbaa !53
  %26 = load i32, ptr %6, align 4, !tbaa !12
  %27 = load ptr, ptr %8, align 8, !tbaa !108
  %28 = call noundef zeroext i8 (ptr, ptr, ptr, ...) @_ZN7JNIEnv_17CallBooleanMethodEP8_jobjectP10_jmethodIDz(ptr noundef nonnull align 8 dereferenceable(8) %21, ptr noundef %23, ptr noundef %25, i32 noundef %26, ptr noundef %27)
  %29 = icmp ne i8 %28, 0
  br i1 %29, label %31, label %30

30:                                               ; preds = %15
  store i1 false, ptr %4, align 1
  store i32 1, ptr %9, align 4
  br label %41

31:                                               ; preds = %15
  %32 = load ptr, ptr %7, align 8, !tbaa !95
  %33 = icmp ne ptr %32, null
  br i1 %33, label %34, label %40

34:                                               ; preds = %31
  %35 = getelementptr inbounds nuw %class.Jipopt, ptr %10, i32 0, i32 1
  %36 = load ptr, ptr %35, align 8, !tbaa !16
  %37 = load ptr, ptr %8, align 8, !tbaa !108
  %38 = load i32, ptr %6, align 4, !tbaa !12
  %39 = load ptr, ptr %7, align 8, !tbaa !95
  call void @_ZN7JNIEnv_17GetIntArrayRegionEP10_jintArrayiiPi(ptr noundef nonnull align 8 dereferenceable(8) %36, ptr noundef %37, i32 noundef 0, i32 noundef %38, ptr noundef %39)
  br label %40

40:                                               ; preds = %34, %31
  store i1 true, ptr %4, align 1
  store i32 1, ptr %9, align 4
  br label %41

41:                                               ; preds = %40, %30
  call void @llvm.lifetime.end.p0(i64 8, ptr %8) #3
  br label %42

42:                                               ; preds = %41, %14
  %43 = load i1, ptr %4, align 1
  ret i1 %43
}