; Function Attrs: mustprogress uwtable
define noundef zeroext i1 @_ZN6Jipopt31get_list_of_nonlinear_variablesEiPi(ptr noundef nonnull readonly align 8 captures(none) dereferenceable(232) %0, i32 noundef %1, ptr noundef %2) unnamed_addr #3 align 2 {
  %4 = getelementptr inbounds nuw i8, ptr %0, i64 129
  %5 = load i8, ptr %4, align 1, !tbaa !113
  %.not = icmp eq i8 %5, 0
  br i1 %.not, label %24, label %6

6:                                                ; preds = %3
  %7 = getelementptr inbounds nuw i8, ptr %0, i64 16
  %8 = load ptr, ptr %7, align 8, !tbaa !10
  %9 = load ptr, ptr %8, align 8, !tbaa !48
  %10 = getelementptr inbounds nuw i8, ptr %9, i64 1432
  %11 = load ptr, ptr %10, align 8, !tbaa !102
  %12 = tail call noundef ptr %11(ptr noundef nonnull align 8 dereferenceable(8) %8, i32 noundef %1)
  %13 = load ptr, ptr %7, align 8, !tbaa !10
  %14 = getelementptr inbounds nuw i8, ptr %0, i64 24
  %15 = load ptr, ptr %14, align 8, !tbaa !20
  %16 = getelementptr inbounds nuw i8, ptr %0, i64 224
  %17 = load ptr, ptr %16, align 8, !tbaa !64
  %18 = tail call noundef zeroext i8 (ptr, ptr, ptr, ...) @_ZN7JNIEnv_17CallBooleanMethodEP8_jobjectP10_jmethodIDz(ptr noundef nonnull align 8 dereferenceable(8) %13, ptr noundef %15, ptr noundef %17, i32 noundef %1, ptr noundef %12)
  %.not9 = icmp ne i8 %18, 0
  %.not10 = icmp ne ptr %2, null
  %or.cond.not = and i1 %.not10, %.not9
  br i1 %or.cond.not, label %19, label %24

19:                                               ; preds = %6
  %20 = load ptr, ptr %7, align 8, !tbaa !10
  %21 = load ptr, ptr %20, align 8, !tbaa !48
  %22 = getelementptr inbounds nuw i8, ptr %21, i64 1624
  %23 = load ptr, ptr %22, align 8, !tbaa !104
  tail call void %23(ptr noundef nonnull align 8 dereferenceable(8) %20, ptr noundef %12, i32 noundef 0, i32 noundef %1, ptr noundef nonnull %2)
  br label %24

24:                                               ; preds = %6, %19, %3
  %.0 = phi i1 [ false, %3 ], [ true, %19 ], [ %.not9, %6 ]
  ret i1 %.0
}